target datalayout = "e-m:e-p270:32:32-p271:32:32-p272:64:64-i64:64-i128:128-f80:128-n8:16:32:64-S128"
target triple = "x86_64-pc-linux-gnu"

%struct.job_record = type { i32, ptr, ptr, ptr, ptr, i16, i32, i32, i32, ptr, i32, ptr, ptr, i16, ptr, double, i64, ptr, ptr, ptr, ptr, ptr, ptr, i32, ptr, i32, i64, i64, i32, i32, ptr, i16, i64, i64, i8, i32, ptr, ptr, ptr, ptr, ptr, ptr, ptr, ptr, i32, ptr, ptr, i32, ptr, i32, ptr, i32, ptr, i32, ptr, ptr, ptr, ptr, ptr, ptr, i32, i16, i64, ptr, ptr, ptr, ptr, %struct.acct_policy_limit_set_t, i16, ptr, ptr, ptr, ptr, ptr, i32, ptr, ptr, ptr, ptr, ptr, i32, i32, ptr, ptr, ptr, i16, ptr, ptr, i8, ptr, ptr, i64, i64, i8, i32, i32, i8, i32, ptr, i32, i64, i32, ptr, ptr, ptr, i8, i16, i64, i32, ptr, ptr, ptr, ptr, ptr, i16, i32, ptr, ptr, ptr, ptr, i32, ptr, i32, i16, i64, ptr, i32, i32, ptr, i64, ptr, ptr, i64, i32, i32, i64, i32, i32, ptr, ptr, ptr, ptr, ptr, ptr, ptr, ptr, ptr, ptr, ptr, ptr, i32, ptr, i16, i16, i16, i16, ptr, i32, i32, i8, i64 }
%struct.acct_policy_limit_set_t = type { i16, i16, ptr }

@job_list = external global ptr, align 8

; Function Attrs: nounwind uwtable
define internal zeroext i1 @_job_overlap(i64 noundef %0, i64 noundef %1, ptr noundef %2, ptr noundef %3) #0 {
  %5 = alloca i1, align 1
  %6 = alloca i64, align 8
  %7 = alloca i64, align 8
  %8 = alloca ptr, align 8
  %9 = alloca ptr, align 8
  %10 = alloca ptr, align 8
  %11 = alloca ptr, align 8
  %12 = alloca i8, align 1
  %13 = alloca i32, align 4
  store i64 %0, ptr %6, align 8
  store i64 %1, ptr %7, align 8
  store ptr %2, ptr %8, align 8
  store ptr %3, ptr %9, align 8
  call void @llvm.lifetime.start.p0(i64 8, ptr %10) #10
  call void @llvm.lifetime.start.p0(i64 8, ptr %11) #10
  call void @llvm.lifetime.start.p0(i64 1, ptr %12) #10
  store i8 0, ptr %12, align 1
  %14 = load ptr, ptr %8, align 8
  %15 = icmp ne ptr %14, null
  br i1 %15, label %16, label %20

16:                                               ; preds = %4
  %17 = load i64, ptr %7, align 8
  %18 = and i64 %17, 64
  %19 = icmp ne i64 %18, 0
  br i1 %19, label %20, label %23

20:                                               ; preds = %16, %4
  %21 = load i8, ptr %12, align 1, !range !11, !noundef !12
  %22 = trunc i8 %21 to i1
  store i1 %22, ptr %5, align 1
  store i32 1, ptr %13, align 4
  br label %73

23:                                               ; preds = %16
  %24 = load i64, ptr %7, align 8
  %25 = and i64 %24, 131072
  %26 = icmp ne i64 %25, 0
  br i1 %26, label %27, label %31

27:                                               ; preds = %23
  %28 = call i64 @time(ptr noundef null) #10
  %29 = load i64, ptr %6, align 8
  %30 = add nsw i64 %29, %28
  store i64 %30, ptr %6, align 8
  br label %31

31:                                               ; preds = %27, %23
  %32 = load ptr, ptr @job_list, align 8
  %33 = call ptr @list_iterator_create(ptr noundef %32)
  store ptr %33, ptr %10, align 8
  br label %34

34:                                               ; preds = %68, %31
  %35 = load ptr, ptr %10, align 8
  %36 = call ptr @list_next(ptr noundef %35)
  store ptr %36, ptr %11, align 8
  %37 = icmp ne ptr %36, null
  br i1 %37, label %38, label %69

38:                                               ; preds = %34
  %39 = load ptr, ptr %11, align 8
  %40 = getelementptr inbounds nuw %struct.job_record, ptr %39, i32 0, i32 60
  %41 = load i32, ptr %40, align 8
  %42 = and i32 %41, 255
  %43 = icmp eq i32 %42, 1
  br i1 %43, label %44, label %68

44:                                               ; preds = %38
  %45 = load ptr, ptr %11, align 8
  %46 = getelementptr inbounds nuw %struct.job_record, ptr %45, i32 0, i32 32
  %47 = load i64, ptr %46, align 8
  %48 = load i64, ptr %6, align 8
  %49 = icmp sgt i64 %47, %48
  br i1 %49, label %50, label %68

50:                                               ; preds = %44
  %51 = load ptr, ptr %11, align 8
  %52 = getelementptr inbounds nuw %struct.job_record, ptr %51, i32 0, i32 77
  %53 = load ptr, ptr %52, align 8
  %54 = load ptr, ptr %8, align 8
  %55 = call i32 @bit_overlap_any(ptr noundef %53, ptr noundef %54)
  %56 = icmp ne i32 %55, 0
  br i1 %56, label %57, label %68

57:                                               ; preds = %50
  %58 = load ptr, ptr %9, align 8
  %59 = icmp eq ptr %58, null
  br i1 %59, label %67, label %60

60:                                               ; preds = %57
  %61 = load ptr, ptr %9, align 8
  %62 = load ptr, ptr %11, align 8
  %63 = getelementptr inbounds nuw %struct.job_record, ptr %62, i32 0, i32 110
  %64 = load ptr, ptr %63, align 8
  %65 = call i32 @xstrcmp(ptr noundef %61, ptr noundef %64)
  %66 = icmp ne i32 %65, 0
  br i1 %66, label %67, label %68

67:                                               ; preds = %60, %57
  store i8 1, ptr %12, align 1
  br label %69

68:                                               ; preds = %60, %50, %44, %38
  br label %34, !llvm.loop !20

69:                                               ; preds = %67, %34
  %70 = load ptr, ptr %10, align 8
  call void @list_iterator_destroy(ptr noundef %70)
  %71 = load i8, ptr %12, align 1, !range !11, !noundef !12
  %72 = trunc i8 %71 to i1
  store i1 %72, ptr %5, align 1
  store i32 1, ptr %13, align 4
  br label %73

73:                                               ; preds = %69, %20
  call void @llvm.lifetime.end.p0(i64 1, ptr %12) #10
  call void @llvm.lifetime.end.p0(i64 8, ptr %11) #10
  call void @llvm.lifetime.end.p0(i64 8, ptr %10) #10
  %74 = load i1, ptr %5, align 1
  ret i1 %74
}