; Function Attrs: nounwind uwtable
define internal fastcc noundef zeroext i1 @_job_overlap(i64 noundef %0, i64 noundef %1, ptr noundef %2, ptr noundef %3) unnamed_addr #0 {
  %.not = icmp ne ptr %2, null
  %5 = and i64 %1, 64
  %.not21 = icmp eq i64 %5, 0
  %or.cond = and i1 %.not, %.not21
  br i1 %or.cond, label %6, label %50

6:                                                ; preds = %4
  %7 = and i64 %1, 131072
  %.not22 = icmp eq i64 %7, 0
  br i1 %.not22, label %11, label %8

8:                                                ; preds = %6
  %9 = tail call i64 @time(ptr noundef null) #19
  %10 = add nsw i64 %9, %0
  br label %11

11:                                               ; preds = %8, %6
  %.017 = phi i64 [ %10, %8 ], [ %0, %6 ]
  %12 = load ptr, ptr @job_list, align 8
  %13 = tail call ptr @list_iterator_create(ptr noundef %12) #19
  %14 = tail call ptr @list_next(ptr noundef %13) #19
  %.not2326.not = icmp eq ptr %14, null
  br i1 %.not2326.not, label %._crit_edge, label %.lr.ph

.lr.ph:                                           ; preds = %11
  %15 = icmp eq ptr %3, null
  br i1 %15, label %.lr.ph.split.us, label %.lr.ph.split

.lr.ph.split.us:                                  ; preds = %.lr.ph, %29
  %16 = phi ptr [ %30, %29 ], [ %14, %.lr.ph ]
  %17 = getelementptr inbounds nuw i8, ptr %16, i64 448
  %18 = load i32, ptr %17, align 8
  %19 = and i32 %18, 255
  %20 = icmp eq i32 %19, 1
  br i1 %20, label %21, label %29

21:                                               ; preds = %.lr.ph.split.us
  %22 = getelementptr inbounds nuw i8, ptr %16, i64 232
  %23 = load i64, ptr %22, align 8
  %24 = icmp sgt i64 %23, %.017
  br i1 %24, label %25, label %29

25:                                               ; preds = %21
  %26 = getelementptr inbounds nuw i8, ptr %16, i64 584
  %27 = load ptr, ptr %26, align 8
  %28 = tail call i32 @bit_overlap_any(ptr noundef %27, ptr noundef nonnull %2) #19
  %.not24.us = icmp eq i32 %28, 0
  br i1 %.not24.us, label %29, label %._crit_edge

29:                                               ; preds = %25, %21, %.lr.ph.split.us
  %30 = tail call ptr @list_next(ptr noundef %13) #19
  %.not23.us.not = icmp eq ptr %30, null
  br i1 %.not23.us.not, label %._crit_edge, label %.lr.ph.split.us, !llvm.loop !20

.lr.ph.split:                                     ; preds = %.lr.ph, %48
  %31 = phi ptr [ %49, %48 ], [ %14, %.lr.ph ]
  %32 = getelementptr inbounds nuw i8, ptr %31, i64 448
  %33 = load i32, ptr %32, align 8
  %34 = and i32 %33, 255
  %35 = icmp eq i32 %34, 1
  br i1 %35, label %36, label %48

36:                                               ; preds = %.lr.ph.split
  %37 = getelementptr inbounds nuw i8, ptr %31, i64 232
  %38 = load i64, ptr %37, align 8
  %39 = icmp sgt i64 %38, %.017
  br i1 %39, label %40, label %48

40:                                               ; preds = %36
  %41 = getelementptr inbounds nuw i8, ptr %31, i64 584
  %42 = load ptr, ptr %41, align 8
  %43 = tail call i32 @bit_overlap_any(ptr noundef %42, ptr noundef nonnull %2) #19
  %.not24 = icmp eq i32 %43, 0
  br i1 %.not24, label %48, label %44

44:                                               ; preds = %40
  %45 = getelementptr inbounds nuw i8, ptr %31, i64 816
  %46 = load ptr, ptr %45, align 8
  %47 = tail call i32 @xstrcmp(ptr noundef nonnull %3, ptr noundef %46) #19
  %.not25 = icmp eq i32 %47, 0
  br i1 %.not25, label %48, label %._crit_edge

48:                                               ; preds = %44, %40, %36, %.lr.ph.split
  %49 = tail call ptr @list_next(ptr noundef %13) #19
  %.not23.not = icmp eq ptr %49, null
  br i1 %.not23.not, label %._crit_edge, label %.lr.ph.split, !llvm.loop !20

._crit_edge:                                      ; preds = %48, %44, %29, %25, %11
  %.not23.lcssa = phi i1 [ false, %11 ], [ true, %25 ], [ false, %29 ], [ true, %44 ], [ false, %48 ]
  tail call void @list_iterator_destroy(ptr noundef %13) #19
  br label %50

50:                                               ; preds = %4, %._crit_edge
  %.016 = phi i1 [ %.not23.lcssa, %._crit_edge ], [ false, %4 ]
  ret i1 %.016
}